target datalayout = "e-m:e-p270:32:32-p271:32:32-p272:64:64-i64:64-i128:128-f80:128-n8:16:32:64-S128"
target triple = "x86_64-pc-linux-gnu"

%struct.mi_page_s = type { i32, i32, i8, i16, i16, %union.mi_page_flags_s, i8, ptr, ptr, i16, i8, i8, i64, ptr, i64, i64, ptr, ptr, [1 x ptr] }
%union.mi_page_flags_s = type { i8 }

; Function Attrs: inlinehint nounwind uwtable
define internal i64 @mi_page_block_size(ptr noundef %0) #0 {
  %2 = alloca ptr, align 8
  store ptr %0, ptr %2, align 8, !tbaa !13
  %3 = load ptr, ptr %2, align 8, !tbaa !13
  %4 = getelementptr inbounds nuw %struct.mi_page_s, ptr %3, i32 0, i32 12
  %5 = load i64, ptr %4, align 8, !tbaa !32
  ret i64 %5
}

; Function Attrs: nounwind uwtable
define hidden ptr @_mi_page_ptr_unalign(ptr noundef %0, ptr noundef %1) #3 {
  %3 = alloca ptr, align 8
  %4 = alloca ptr, align 8
  %5 = alloca i64, align 8
  %6 = alloca i64, align 8
  store ptr %0, ptr %3, align 8, !tbaa !13
  store ptr %1, ptr %4, align 8, !tbaa !7
  call void @llvm.lifetime.start.p0(i64 8, ptr %5) #15
  %7 = load ptr, ptr %4, align 8, !tbaa !7
  %8 = load ptr, ptr %3, align 8, !tbaa !13
  %9 = getelementptr inbounds nuw %struct.mi_page_s, ptr %8, i32 0, i32 13
  %10 = load ptr, ptr %9, align 8, !tbaa !27
  %11 = ptrtoint ptr %7 to i64
  %12 = ptrtoint ptr %10 to i64
  %13 = sub i64 %11, %12
  store i64 %13, ptr %5, align 8, !tbaa !3
  call void @llvm.lifetime.start.p0(i64 8, ptr %6) #15
  %14 = load ptr, ptr %3, align 8, !tbaa !13
  %15 = getelementptr inbounds nuw %struct.mi_page_s, ptr %14, i32 0, i32 10
  %16 = load i8, ptr %15, align 2, !tbaa !31
  %17 = zext i8 %16 to i32
  %18 = icmp ne i32 %17, 0
  %19 = xor i1 %18, true
  %20 = xor i1 %19, true
  %21 = zext i1 %20 to i32
  %22 = sext i32 %21 to i64
  %23 = call i64 @llvm.expect.i64(i64 %22, i64 1)
  %24 = icmp ne i64 %23, 0
  br i1 %24, label %25, label %35

25:                                               ; preds = %2
  %26 = load i64, ptr %5, align 8, !tbaa !3
  %27 = load ptr, ptr %3, align 8, !tbaa !13
  %28 = getelementptr inbounds nuw %struct.mi_page_s, ptr %27, i32 0, i32 10
  %29 = load i8, ptr %28, align 2, !tbaa !31
  %30 = zext i8 %29 to i32
  %31 = zext i32 %30 to i64
  %32 = shl i64 1, %31
  %33 = sub i64 %32, 1
  %34 = and i64 %26, %33
  store i64 %34, ptr %6, align 8, !tbaa !3
  br label %40

35:                                               ; preds = %2
  %36 = load i64, ptr %5, align 8, !tbaa !3
  %37 = load ptr, ptr %3, align 8, !tbaa !13
  %38 = call i64 @mi_page_block_size(ptr noundef %37) #14
  %39 = urem i64 %36, %38
  store i64 %39, ptr %6, align 8, !tbaa !3
  br label %40

40:                                               ; preds = %35, %25
  %41 = load ptr, ptr %4, align 8, !tbaa !7
  %42 = ptrtoint ptr %41 to i64
  %43 = load i64, ptr %6, align 8, !tbaa !3
  %44 = sub i64 %42, %43
  %45 = inttoptr i64 %44 to ptr
  call void @llvm.lifetime.end.p0(i64 8, ptr %6) #15
  call void @llvm.lifetime.end.p0(i64 8, ptr %5) #15
  ret ptr %45
}