; Function Attrs: mustprogress nofree norecurse nosync nounwind willreturn memory(argmem: read) uwtable
define hidden ptr @_mi_page_ptr_unalign(ptr noundef readonly captures(none) %0, ptr noundef %1) local_unnamed_addr #6 {
  %3 = getelementptr inbounds nuw i8, ptr %0, i64 48
  %4 = load ptr, ptr %3, align 8, !tbaa !30
  %5 = ptrtoint ptr %1 to i64
  %6 = ptrtoint ptr %4 to i64
  %7 = sub i64 %5, %6
  %8 = getelementptr inbounds nuw i8, ptr %0, i64 34
  %9 = load i8, ptr %8, align 2, !tbaa !31
  %.not = icmp eq i8 %9, 0
  br i1 %.not, label %14, label %10, !prof !18

10:                                               ; preds = %2
  %11 = zext nneg i8 %9 to i64
  %notmask = shl nsw i64 -1, %11
  %12 = xor i64 %notmask, -1
  %13 = and i64 %7, %12
  br label %17

14:                                               ; preds = %2
  %15 = getelementptr i8, ptr %0, i64 40
  %.val = load i64, ptr %15, align 8, !tbaa !22
  %16 = urem i64 %7, %.val
  br label %17

17:                                               ; preds = %14, %10
  %.0 = phi i64 [ %13, %10 ], [ %16, %14 ]
  %18 = sub i64 %5, %.0
  %19 = inttoptr i64 %18 to ptr
  ret ptr %19
}